Certificate:
    Data:
        Version: 3 (0x2)
        Serial Number: 0 (0x0)
        Signature Algorithm: sha1WithRSAEncryption
        Issuer: C=AU, O=DXCertGenPKI, CN=DXCertGenCA
        Validity
            Not Before: Apr 26 19:32:56 2015 GMT
            Not After : Apr 25 19:32:56 2016 GMT
        Subject: C=AU, O=DXCertGenPKI, CN=DXCertGenCA
        Subject Public Key Info:
            Public Key Algorithm: rsaEncryption
            RSA Public Key: (1024 bit)
                Modulus (1024 bit):
                    00:b4:97:de:15:44:c4:02:50:57:d1:8f:f2:ec:14:
                    0e:1a:8e:82:dd:f3:18:5b:8d:96:3d:59:3b:ee:d9:
                    69:55:ba:f0:b2:66:a4:92:83:15:e6:93:f3:61:bd:
                    da:50:2a:0a:fb:54:47:c4:f7:26:fe:13:64:27:b6:
                    97:48:d1:1d:cc:58:e8:29:77:b6:42:48:4d:88:6f:
                    82:5b:bc:49:5c:d9:38:d4:71:fc:82:3f:8a:87:d5:
                    da:23:d9:ce:79:dc:fa:71:38:2d:f4:d6:29:35:43:
                    6f:49:1b:cd:6d:8f:54:36:a7:42:0d:ae:dc:cd:50:
                    03:d7:30:f7:71:90:26:ff:43
                Exponent: 65537 (0x10001)
        X509v3 extensions:
            X509v3 Key Usage: critical
                Certificate Sign, CRL Sign
            X509v3 Basic Constraints: critical
                CA:TRUE
    Signature Algorithm: sha1WithRSAEncryption
        35:f8:81:ae:76:f8:35:48:0a:08:38:2f:47:60:b4:a5:ad:35:
        b7:52:c0:05:5b:a3:c7:4d:52:18:b6:15:56:4e:71:68:ef:fa:
        cd:5a:da:cb:0c:6b:22:76:d5:eb:33:2d:26:42:74:3f:6f:e7:
        81:30:c3:d0:07:7c:52:1b:e9:70:66:af:fc:99:3d:5d:45:78:
        39:9b:60:52:c0:d0:78:44:a4:9c:68:08:b4:7e:6a:68:e3:17:
        ff:b4:04:11:c6:8e:b9:02:7b:e2:3d:1c:e2:43:71:e8:4f:46:
        3e:81:c7:73:46:46:a2:89:aa:06:ba:8c:cc:3d:7a:d9:03:d7:
        2b:89
-----BEGIN CERTIFICATE-----
MIICDTCCAXagAwIBAgIBADANBgkqhkiG9w0BAQUFADA6MQswCQYDVQQGEwJBVTEV
MBMGA1UEChMMRFhDZXJ0R2VuUEtJMRQwEgYDVQQDEwtEWENlcnRHZW5DQTAeFw0x
NTA0MjYxOTMyNTZaFw0xNjA0MjUxOTMyNTZaMDoxCzAJBgNVBAYTAkFVMRUwEwYD
VQQKEwxEWENlcnRHZW5QS0kxFDASBgNVBAMTC0RYQ2VydEdlbkNBMIGfMA0GCSqG
SIb3DQEBAQUAA4GNADCBiQKBgQC0l94VRMQCUFfRj/LsFA4ajoLd8xhbjZY9WTvu
2WlVuvCyZqSSgxXmk/NhvdpQKgr7VEfE9yb+E2QntpdI0R3MWOgpd7ZCSE2Ib4Jb
vElc2TjUcfyCP4qH1doj2c553PpxOC301ik1Q29JG81tj1Q2p0INrtzNUAPXMPdx
kCb/QwIDAQABoyMwITAOBgNVHQ8BAf8EBAMCAQYwDwYDVR0TAQH/BAUwAwEB/zAN
BgkqhkiG9w0BAQUFAAOBgQA1+IGudvg1SAoIOC9HYLSlrTW3UsAFW6PHTVIYthVW
TnFo7/rNWtrLDGsidtXrMy0mQnQ/b+eBMMPQB3xSG+lwZq/8mT1dRXg5m2BSwNB4
RKScaAi0fmpo4xf/tAQRxo65AnviPRziQ3HoT0Y+gcdzRkaiiaoGuozMPXrZA9cr
iQ==
-----END CERTIFICATE-----
