Certificate:
    Data:
        Version: 3 (0x2)
        Serial Number: 0 (0x0)
        Signature Algorithm: sha1WithRSAEncryption
        Issuer: C=AU, O=DXCertGenPKI, CN=DXCertGenCA
        Validity
            Not Before: Sep  3 01:53:11 2015 GMT
            Not After : Sep  2 01:53:11 2016 GMT
        Subject: C=AU, O=DXCertGenPKI, CN=DXCertGenCA
        Subject Public Key Info:
            Public Key Algorithm: rsaEncryption
            RSA Public Key: (1024 bit)
                Modulus (1024 bit):
                    00:ca:8c:c3:17:ad:11:d7:7a:4d:e0:e8:7d:c1:cb:
                    ef:d1:a6:47:fb:cf:55:39:88:62:b5:1e:2f:61:47:
                    43:e9:ab:61:8b:fa:d1:10:8a:a3:e7:7b:74:50:75:
                    2b:9b:cc:a1:c4:89:eb:24:e1:6d:4a:22:0a:ed:54:
                    91:d6:aa:be:ec:a7:fc:a0:03:de:f0:70:68:fa:32:
                    bf:e8:ec:a7:9d:69:02:9d:61:3f:55:77:3c:e0:da:
                    79:d8:db:4c:de:70:32:1c:80:bf:b9:45:40:14:67:
                    a7:15:bf:71:1a:63:5a:1e:a7:50:0f:5b:35:15:62:
                    fe:a2:30:9f:b7:91:3f:01:cf
                Exponent: 65537 (0x10001)
        X509v3 extensions:
            X509v3 Key Usage: critical
                Certificate Sign, CRL Sign
            X509v3 Basic Constraints: critical
                CA:TRUE
    Signature Algorithm: sha1WithRSAEncryption
        ba:7f:98:96:d7:14:04:29:de:65:17:54:4e:6b:b0:94:aa:ff:
        bf:ad:38:bf:e6:7b:20:44:17:6b:e8:4b:52:c7:7b:cd:e5:f7:
        d6:50:29:1a:77:d1:ff:97:65:50:45:1b:47:50:1b:1d:7c:17:
        1d:32:ab:22:e9:33:f1:f7:ab:c5:5c:a9:65:cc:02:4c:0e:3f:
        ef:02:ae:cf:47:52:61:08:90:23:da:b4:c0:fb:46:ca:99:ae:
        5b:17:91:4c:7a:c7:d0:33:05:7f:05:de:55:e4:11:2e:2f:ce:
        ea:cf:0e:fe:98:e3:e9:aa:be:39:e4:dc:e9:f6:f5:54:ba:15:
        0c:7b
-----BEGIN CERTIFICATE-----
MIICDTCCAXagAwIBAgIBADANBgkqhkiG9w0BAQUFADA6MQswCQYDVQQGEwJBVTEV
MBMGA1UEChMMRFhDZXJ0R2VuUEtJMRQwEgYDVQQDEwtEWENlcnRHZW5DQTAeFw0x
NTA5MDMwMTUzMTFaFw0xNjA5MDIwMTUzMTFaMDoxCzAJBgNVBAYTAkFVMRUwEwYD
VQQKEwxEWENlcnRHZW5QS0kxFDASBgNVBAMTC0RYQ2VydEdlbkNBMIGfMA0GCSqG
SIb3DQEBAQUAA4GNADCBiQKBgQDKjMMXrRHXek3g6H3By+/Rpkf7z1U5iGK1Hi9h
R0Ppq2GL+tEQiqPne3RQdSubzKHEiesk4W1KIgrtVJHWqr7sp/ygA97wcGj6Mr/o
7KedaQKdYT9Vdzzg2nnY20zecDIcgL+5RUAUZ6cVv3EaY1oep1APWzUVYv6iMJ+3
kT8BzwIDAQABoyMwITAOBgNVHQ8BAf8EBAMCAQYwDwYDVR0TAQH/BAUwAwEB/zAN
BgkqhkiG9w0BAQUFAAOBgQC6f5iW1xQEKd5lF1ROa7CUqv+/rTi/5nsgRBdr6EtS
x3vN5ffWUCkad9H/l2VQRRtHUBsdfBcdMqsi6TPx96vFXKllzAJMDj/vAq7PR1Jh
CJAj2rTA+0bKma5bF5FMesfQMwV/Bd5V5BEuL87qzw7+mOPpqr455Nzp9vVUuhUM
ew==
-----END CERTIFICATE-----
