Certificate:
    Data:
        Version: 3 (0x2)
        Serial Number: 8 (0x8)
        Signature Algorithm: sha1WithRSAEncryption
        Issuer: C=AU, O=DXCertGenPKI, CN=DXCertGenCA
        Validity
            Not Before: Sep  3 01:53:13 2015 GMT
            Not After : Sep  2 01:53:13 2016 GMT
        Subject: CN=primary-router
        Subject Public Key Info:
            Public Key Algorithm: rsaEncryption
            RSA Public Key: (1024 bit)
                Modulus (1024 bit):
                    00:ad:cd:7b:ac:fd:79:23:15:9b:95:dc:ae:30:37:
                    56:6b:d6:a4:e2:ac:36:b6:96:c2:03:5c:3f:40:3d:
                    31:04:0f:56:4b:09:dc:db:ee:26:ec:07:20:c6:e7:
                    31:34:85:8b:e3:80:d7:96:8b:12:16:4f:13:b0:35:
                    e3:ef:df:48:46:3b:ae:1b:f5:e6:fa:70:1b:2a:17:
                    84:4e:f1:75:2f:18:84:fb:f2:53:c5:40:dc:ee:de:
                    65:35:d9:5c:ea:84:f5:f9:62:70:ee:4e:de:32:3b:
                    f4:d1:5d:f6:fb:19:70:af:00:0b:c7:72:b1:f4:35:
                    30:d4:f2:f4:5f:91:9b:7f:ad
                Exponent: 65537 (0x10001)
        X509v3 extensions:
            X509v3 Key Usage: critical
                Digital Signature, Key Encipherment, Key Agreement
            X509v3 Basic Constraints: 
                CA:FALSE
    Signature Algorithm: sha1WithRSAEncryption
        49:d1:a3:3b:b4:55:ea:a2:78:c8:7d:b2:8f:6e:a2:c7:7c:ed:
        b7:f2:f1:f2:7f:c3:58:56:d6:2b:5b:57:b5:63:47:66:fe:ca:
        25:50:f4:4c:0e:a3:54:5b:2a:ef:29:ce:79:1d:b3:7b:9f:12:
        23:03:cb:d8:9f:b2:8e:d4:81:e5:ea:af:4b:1f:86:11:9a:00:
        7a:d4:4b:83:56:d0:3a:f0:2c:18:7a:10:b9:48:a5:2a:fd:a0:
        8c:55:ba:cf:73:98:ea:2e:f3:19:b5:4e:b1:b3:eb:fd:d4:58:
        5a:1b:c3:96:47:8e:ad:6b:47:86:57:ec:96:7c:0d:1b:e3:b4:
        3e:59
-----BEGIN CERTIFICATE-----
MIIB5jCCAU+gAwIBAgIBCDANBgkqhkiG9w0BAQUFADA6MQswCQYDVQQGEwJBVTEV
MBMGA1UEChMMRFhDZXJ0R2VuUEtJMRQwEgYDVQQDEwtEWENlcnRHZW5DQTAeFw0x
NTA5MDMwMTUzMTNaFw0xNjA5MDIwMTUzMTNaMBkxFzAVBgNVBAMTDnByaW1hcnkt
cm91dGVyMIGfMA0GCSqGSIb3DQEBAQUAA4GNADCBiQKBgQCtzXus/XkjFZuV3K4w
N1Zr1qTirDa2lsIDXD9APTEED1ZLCdzb7ibsByDG5zE0hYvjgNeWixIWTxOwNePv
30hGO64b9eb6cBsqF4RO8XUvGIT78lPFQNzu3mU12VzqhPX5YnDuTt4yO/TRXfb7
GXCvAAvHcrH0NTDU8vRfkZt/rQIDAQABox0wGzAOBgNVHQ8BAf8EBAMCA6gwCQYD
VR0TBAIwADANBgkqhkiG9w0BAQUFAAOBgQBJ0aM7tFXqonjIfbKPbqLHfO238vHy
f8NYVtYrW1e1Y0dm/solUPRMDqNUWyrvKc55HbN7nxIjA8vYn7KO1IHl6q9LH4YR
mgB61EuDVtA68CwYehC5SKUq/aCMVbrPc5jqLvMZtU6xs+v91FhaG8OWR46ta0eG
V+yWfA0b47Q+WQ==
-----END CERTIFICATE-----
-----BEGIN RSA PRIVATE KEY-----
MIICXQIBAAKBgQCtzXus/XkjFZuV3K4wN1Zr1qTirDa2lsIDXD9APTEED1ZLCdzb
7ibsByDG5zE0hYvjgNeWixIWTxOwNePv30hGO64b9eb6cBsqF4RO8XUvGIT78lPF
QNzu3mU12VzqhPX5YnDuTt4yO/TRXfb7GXCvAAvHcrH0NTDU8vRfkZt/rQIDAQAB
AoGBAJcNJVW9nhBt8SCYAROKpKNokzklrw+VitzcyWQNSpJaugbRdY/3NQChWU1F
FTCueFurWLNP/tJAu73DuGx7RBXG94eBUJtBzhW/wq7NfRc0WRWFdE2Cc0EsXNRS
jUGu2ZG18SUOGhX8ypik0r14QBMRQWSCguIUb48wE2YH46xBAkEA34yUSaI/eAnb
BMLGBEQVOm5R8d3LAM5lc7gAwSaAQDShtn91EV2oWJYrGfwtLHECSPjnYGZ5PQ/U
e2o0ltIZ9QJBAMcIQCSdIFrg55nFIMKjUnlrJN8BGOGx6j1jvJATKKy+iQ0Ffy0p
7/twmmupB4hHNC7+tr13toQXK2Hoy6K7I9kCQC98LA+MEFFOPqC/QtKrJ5s2zd9D
jpiIPxKalkZxCDMbOvKKFnLu4xCWLWeionHbO3IGtRdMDRrEXw0sHSmgTXUCQQCw
NzXTNOp4i7eCBW5D5aYXqi0y5B3LdWIWiD9isBPLHcbpqHw42HCJBeEygK0Skzg4
g3v3tA38VScrwJjKszXBAkAafgleU2zIEJmzhSM9oGyrAuyRXuZqBxwjmUw0Sjcu
DzjsLhn5qC3NgUIr6ihev4RSwZxHoHWU769Bb0k6mNTD
-----END RSA PRIVATE KEY-----
