Certificate:
    Data:
        Version: 3 (0x2)
        Serial Number: 6 (0x6)
        Signature Algorithm: sha1WithRSAEncryption
        Issuer: C=AU, O=DXCertGenPKI, CN=DXCertGenCA
        Validity
            Not Before: Sep  3 01:53:13 2015 GMT
            Not After : Sep  2 01:53:13 2016 GMT
        Subject: DC=ca, DC=ForwardInc, CN=primary-data
        Subject Public Key Info:
            Public Key Algorithm: rsaEncryption
            RSA Public Key: (1024 bit)
                Modulus (1024 bit):
                    00:c0:60:f5:84:0a:80:09:f1:79:ff:15:77:2e:92:
                    16:55:b0:8b:b0:4c:d4:60:e5:81:52:a1:d0:3d:ed:
                    67:b9:9a:d7:09:0f:92:cf:21:6a:70:cc:6a:14:9c:
                    03:75:82:0f:4b:08:92:6d:8b:98:b0:74:7c:84:c0:
                    e3:15:60:97:67:c8:08:cf:18:1d:dc:e3:51:92:d9:
                    69:61:dd:cb:bd:e2:31:ce:b7:df:be:ca:a2:0a:ea:
                    4e:f4:9a:66:e0:50:d8:fa:00:f1:3c:16:ee:6d:1d:
                    9e:55:90:25:ad:46:98:e4:8f:28:e7:93:18:f8:b8:
                    a8:39:b3:51:b3:63:29:27:51
                Exponent: 65537 (0x10001)
        X509v3 extensions:
            X509v3 Key Usage: critical
                Digital Signature, Key Encipherment, Key Agreement
            X509v3 Basic Constraints: 
                CA:FALSE
    Signature Algorithm: sha1WithRSAEncryption
        bf:7b:b1:56:66:24:ee:8b:ff:df:eb:65:4e:8e:de:8c:04:42:
        3a:9e:42:ce:23:d5:58:54:3f:62:53:a8:65:f1:79:4d:0f:6c:
        54:a8:ef:6c:b2:6f:b7:b8:c6:00:db:e0:35:c9:8d:26:fd:0d:
        9e:d9:6a:f3:22:02:30:14:ca:60:2f:4a:8e:fc:bd:32:fb:34:
        06:d6:8e:71:a0:e0:29:66:2c:3e:85:77:6f:b8:76:7a:e5:45:
        fb:cc:a5:c3:5a:d4:4f:0b:04:9f:d0:a3:09:f9:22:28:94:06:
        28:92:d7:3d:af:8e:f6:85:73:0a:29:17:da:95:3b:c4:ba:78:
        e3:e5
-----BEGIN CERTIFICATE-----
MIICFDCCAX2gAwIBAgIBBjANBgkqhkiG9w0BAQUFADA6MQswCQYDVQQGEwJBVTEV
MBMGA1UEChMMRFhDZXJ0R2VuUEtJMRQwEgYDVQQDEwtEWENlcnRHZW5DQTAeFw0x
NTA5MDMwMTUzMTNaFw0xNjA5MDIwMTUzMTNaMEcxEjAQBgoJkiaJk/IsZAEZFgJj
YTEaMBgGCgmSJomT8ixkARkWCkZvcndhcmRJbmMxFTATBgNVBAMTDHByaW1hcnkt
ZGF0YTCBnzANBgkqhkiG9w0BAQEFAAOBjQAwgYkCgYEAwGD1hAqACfF5/xV3LpIW
VbCLsEzUYOWBUqHQPe1nuZrXCQ+SzyFqcMxqFJwDdYIPSwiSbYuYsHR8hMDjFWCX
Z8gIzxgd3ONRktlpYd3LveIxzrffvsqiCupO9Jpm4FDY+gDxPBbubR2eVZAlrUaY
5I8o55MY+LioObNRs2MpJ1ECAwEAAaMdMBswDgYDVR0PAQH/BAQDAgOoMAkGA1Ud
EwQCMAAwDQYJKoZIhvcNAQEFBQADgYEAv3uxVmYk7ov/3+tlTo7ejARCOp5CziPV
WFQ/YlOoZfF5TQ9sVKjvbLJvt7jGANvgNcmNJv0Nntlq8yICMBTKYC9Kjvy9Mvs0
BtaOcaDgKWYsPoV3b7h2euVF+8ylw1rUTwsEn9CjCfkiKJQGKJLXPa+O9oVzCikX
2pU7xLp44+U=
-----END CERTIFICATE-----
-----BEGIN RSA PRIVATE KEY-----
MIICXAIBAAKBgQDAYPWECoAJ8Xn/FXcukhZVsIuwTNRg5YFSodA97We5mtcJD5LP
IWpwzGoUnAN1gg9LCJJti5iwdHyEwOMVYJdnyAjPGB3c41GS2Wlh3cu94jHOt9++
yqIK6k70mmbgUNj6APE8Fu5tHZ5VkCWtRpjkjyjnkxj4uKg5s1GzYyknUQIDAQAB
AoGAU4xIVBXzUV4r61o5LmKHjKNlpyVWvtYteeOIeryV5YeXh/nZelc60M4V6+lt
nyTi22VXoneT0l5kjYrvlCMk3UzVrHqEtQAlGDLoFF/eQV4cQt+d5JGO08f5IS3F
dp+tgVWhNHRuGBv/b80rQZOZzJsDzbQvySAj/dQxh1u+gXkCQQD/ke4QjZUg4yFx
3ZHNqn3+z0XaNg5CKIZcJExu2SDjfnWmr0FL3XYde3cu/r8auyjOxGAj2piG2kqZ
U5cscEgfAkEAwLPQR7gl5ZAY3PUJSUHHxeeJIwVpzkJQ2RmlpMHScvuia3ffprlI
ODYwx/wumZFsMoK1O/9077ieD1S7FItijwJAMAIivVtLU0U3aCNeG0tWpcIb9hTH
cugX7UEoVn5VLkb4JNqxImY0pO8ngV17WrMjxEuhX7rVgieJceoA8OkaswJBAKXN
0abz7j+QdaQgfeX3YHGK37cvYDNlYfT6mUiisHXYx45abSgiAd7D2cMo29usgYEQ
b+n4yl+85NriF7n8mEcCQE+K3cVz+LLQ6W7nhO1d0aLy3/dUA8AViuqXV/j7UDRQ
PzbutEffvWsIqfYzDxsok/iMYhwLKCGvyOy1sKFKK/w=
-----END RSA PRIVATE KEY-----
