Certificate:
    Data:
        Version: 3 (0x2)
        Serial Number: 3 (0x3)
        Signature Algorithm: sha1WithRSAEncryption
        Issuer: C=AU, O=DXCertGenPKI, CN=DXCertGenCA
        Validity
            Not Before: Apr 26 19:32:58 2015 GMT
            Not After : Apr 25 19:32:58 2016 GMT
        Subject: CN=primary-router
        Subject Public Key Info:
            Public Key Algorithm: rsaEncryption
            RSA Public Key: (1024 bit)
                Modulus (1024 bit):
                    00:e4:06:e2:04:ea:b6:ad:c1:01:a2:93:88:b9:cf:
                    38:12:d4:66:9e:aa:52:b9:80:39:7c:ac:b1:4e:11:
                    ba:33:85:b0:33:a0:fb:ca:a6:db:ba:44:9d:30:37:
                    c4:ba:36:f3:d3:8b:30:55:a0:7c:9a:10:6f:6c:4d:
                    3e:8c:0c:63:31:63:2d:64:fc:74:b5:ac:c2:f2:81:
                    ad:bb:b1:fa:60:cb:62:93:02:01:e5:a8:22:34:6f:
                    6f:01:18:0a:f3:29:1b:c2:59:bb:b5:e1:c3:9c:a1:
                    1b:bb:be:de:78:b9:4a:67:2f:e4:0c:ed:36:ed:bc:
                    26:63:8a:02:48:e8:62:e6:23
                Exponent: 65537 (0x10001)
        X509v3 extensions:
            X509v3 Key Usage: critical
                Digital Signature, Key Encipherment, Key Agreement
            X509v3 Basic Constraints: 
                CA:FALSE
    Signature Algorithm: sha1WithRSAEncryption
        4b:09:35:5d:f4:b1:28:00:bd:76:94:21:05:5b:70:af:7f:9d:
        56:60:5f:a6:07:54:78:b5:87:8c:3a:a3:dd:a5:a2:8b:20:b6:
        b6:a8:b6:ef:23:24:b1:9d:33:c0:ce:f7:a4:23:56:80:c6:fc:
        14:c8:fe:40:fd:8c:5a:c5:fa:d5:19:e9:6a:6d:12:9e:ea:80:
        6a:d9:c1:8a:2d:33:a6:16:b9:df:03:b8:75:d5:69:8b:d1:ca:
        27:51:8c:8a:ba:75:be:aa:1a:f6:de:74:c5:25:be:6e:8b:80:
        41:37:cf:8a:9c:d5:7d:fc:90:f4:96:ee:20:d1:0f:03:ec:fe:
        fc:1c
-----BEGIN CERTIFICATE-----
MIIB5jCCAU+gAwIBAgIBAzANBgkqhkiG9w0BAQUFADA6MQswCQYDVQQGEwJBVTEV
MBMGA1UEChMMRFhDZXJ0R2VuUEtJMRQwEgYDVQQDEwtEWENlcnRHZW5DQTAeFw0x
NTA0MjYxOTMyNThaFw0xNjA0MjUxOTMyNThaMBkxFzAVBgNVBAMTDnByaW1hcnkt
cm91dGVyMIGfMA0GCSqGSIb3DQEBAQUAA4GNADCBiQKBgQDkBuIE6ratwQGik4i5
zzgS1GaeqlK5gDl8rLFOEbozhbAzoPvKptu6RJ0wN8S6NvPTizBVoHyaEG9sTT6M
DGMxYy1k/HS1rMLyga27sfpgy2KTAgHlqCI0b28BGArzKRvCWbu14cOcoRu7vt54
uUpnL+QM7TbtvCZjigJI6GLmIwIDAQABox0wGzAOBgNVHQ8BAf8EBAMCA6gwCQYD
VR0TBAIwADANBgkqhkiG9w0BAQUFAAOBgQBLCTVd9LEoAL12lCEFW3Cvf51WYF+m
B1R4tYeMOqPdpaKLILa2qLbvIySxnTPAzvekI1aAxvwUyP5A/YxaxfrVGelqbRKe
6oBq2cGKLTOmFrnfA7h11WmL0conUYyKunW+qhr23nTFJb5ui4BBN8+KnNV9/JD0
lu4g0Q8D7P78HA==
-----END CERTIFICATE-----
-----BEGIN RSA PRIVATE KEY-----
MIICXgIBAAKBgQDkBuIE6ratwQGik4i5zzgS1GaeqlK5gDl8rLFOEbozhbAzoPvK
ptu6RJ0wN8S6NvPTizBVoHyaEG9sTT6MDGMxYy1k/HS1rMLyga27sfpgy2KTAgHl
qCI0b28BGArzKRvCWbu14cOcoRu7vt54uUpnL+QM7TbtvCZjigJI6GLmIwIDAQAB
AoGAEMN4xkfDGk8AIcWa3Z4gTzISQUPgRQbqMwI3Hrgq6jK/22vQVvuhV7ZHoA3Z
hp8Xmcu3x/O+dU0UA/BB0uXuPMWuR4TKLu+T0x0P1ohuuGHGjB9hK/Jmwr7090iI
QHWjuqEvZO+JQmzDoKmPq4zfP5c0uExGNtPVxUgmYtHnnUECQQD95IFrnRVqozeC
fMTmTai/BaMrbs+OV8dWM31tNMLxr7g0AL6Th1GHfejz8uX7zkQzMXdLe7Dd/LP/
YSVNeltRAkEA5etqXP/PWQmXB/YBuhLn17X+uDgoFS8AS4M7ibSpQv7IGzVhawYZ
QlB9m9NkKnk+Kuhh7r+kegbFOXVOGNAlMwJBAJbT6cKZVgC8p5xgLMS4O9gHLFEA
ClOAeA4QlqGKp4jWn/Jcwtp3mAqK1RofIVs+xSs4Zqsz9vVZS0EaYAOv/ZECQQDe
ZsQyRXiqpe4kU0EEXvlI3dERHbEYHKjqYn0bDViVZ6LlPtOHFRUl4no+W1MPCsyp
8LOaoGJXb2kj1Wa/9celAkEA2BdcNi+lyVs69zv6pdRB8R8CxLlYUIvY5AnYmqAr
7dbURBJXyod6ecPqbFedZ5tT0sCODLXTfVJI0tYfuulMAA==
-----END RSA PRIVATE KEY-----
