Certificate:
    Data:
        Version: 3 (0x2)
        Serial Number: 1 (0x1)
        Signature Algorithm: sha1WithRSAEncryption
        Issuer: C=AU, O=DXCertGenPKI, CN=DXCertGenCA
        Validity
            Not Before: Apr 26 19:32:56 2015 GMT
            Not After : Apr 25 19:32:56 2016 GMT
        Subject: C=AU, O=Democorp, CN=primary-data
        Subject Public Key Info:
            Public Key Algorithm: rsaEncryption
            RSA Public Key: (1024 bit)
                Modulus (1024 bit):
                    00:bd:98:67:cf:b5:88:36:a9:98:09:61:f2:22:a5:
                    79:93:f8:c3:da:9f:d7:17:8d:45:0f:f0:32:e6:ae:
                    c8:9e:96:1c:0d:de:1e:01:94:cc:cd:77:05:2b:f9:
                    2a:ca:3d:bb:43:0f:c8:07:f1:df:b0:46:42:cf:28:
                    c6:fd:a7:63:3b:b1:b5:1c:6b:4d:1a:3e:33:0b:e4:
                    78:d7:43:7b:78:71:d8:c9:1b:59:68:c6:aa:81:f9:
                    25:9f:a1:ca:13:46:e6:03:8c:69:16:fe:bb:ab:9a:
                    89:8c:19:de:50:1b:ae:04:8f:af:11:1e:f3:2b:87:
                    33:d2:1a:c5:a7:52:50:b4:69
                Exponent: 65537 (0x10001)
        X509v3 extensions:
            X509v3 Key Usage: critical
                Digital Signature, Key Encipherment, Key Agreement
            X509v3 Basic Constraints: 
                CA:FALSE
    Signature Algorithm: sha1WithRSAEncryption
        67:c7:ef:6c:ba:c4:72:1b:92:1e:ab:57:fb:34:a8:b3:e4:48:
        58:4d:21:76:8f:86:6e:50:2b:09:b9:01:2d:d7:f9:62:a2:1b:
        28:e5:77:78:da:1d:c2:ac:f9:8b:65:bb:2d:f6:0c:66:43:d8:
        90:9d:5a:0f:9d:f8:8b:b8:5a:07:0e:64:2f:01:73:9d:38:4f:
        0f:75:a7:2f:3f:7a:72:f7:cf:e6:a5:63:a9:30:ca:77:d3:79:
        3d:5b:8c:44:42:69:18:46:93:d8:97:29:07:6f:1f:b7:cd:b4:
        cc:68:63:f4:43:78:92:56:2c:07:fb:d9:c1:4e:01:13:86:cb:
        34:92
-----BEGIN CERTIFICATE-----
MIICBDCCAW2gAwIBAgIBATANBgkqhkiG9w0BAQUFADA6MQswCQYDVQQGEwJBVTEV
MBMGA1UEChMMRFhDZXJ0R2VuUEtJMRQwEgYDVQQDEwtEWENlcnRHZW5DQTAeFw0x
NTA0MjYxOTMyNTZaFw0xNjA0MjUxOTMyNTZaMDcxCzAJBgNVBAYTAkFVMREwDwYD
VQQKEwhEZW1vY29ycDEVMBMGA1UEAxMMcHJpbWFyeS1kYXRhMIGfMA0GCSqGSIb3
DQEBAQUAA4GNADCBiQKBgQC9mGfPtYg2qZgJYfIipXmT+MPan9cXjUUP8DLmrsie
lhwN3h4BlMzNdwUr+SrKPbtDD8gH8d+wRkLPKMb9p2M7sbUca00aPjML5HjXQ3t4
cdjJG1loxqqB+SWfocoTRuYDjGkW/rurmomMGd5QG64Ej68RHvMrhzPSGsWnUlC0
aQIDAQABox0wGzAOBgNVHQ8BAf8EBAMCA6gwCQYDVR0TBAIwADANBgkqhkiG9w0B
AQUFAAOBgQBnx+9susRyG5Ieq1f7NKiz5EhYTSF2j4ZuUCsJuQEt1/liohso5Xd4
2h3CrPmLZbst9gxmQ9iQnVoPnfiLuFoHDmQvAXOdOE8PdacvP3py98/mpWOpMMp3
03k9W4xEQmkYRpPYlykHbx+3zbTMaGP0Q3iSViwH+9nBTgEThss0kg==
-----END CERTIFICATE-----
-----BEGIN RSA PRIVATE KEY-----
MIICXAIBAAKBgQC9mGfPtYg2qZgJYfIipXmT+MPan9cXjUUP8DLmrsielhwN3h4B
lMzNdwUr+SrKPbtDD8gH8d+wRkLPKMb9p2M7sbUca00aPjML5HjXQ3t4cdjJG1lo
xqqB+SWfocoTRuYDjGkW/rurmomMGd5QG64Ej68RHvMrhzPSGsWnUlC0aQIDAQAB
AoGAfHLvoW2dDZRg0bfTAl7v4OsnU/gbbcAzFvUp1DXiRgZuP8QOmiccD7oSUPzq
03mV070mJeDkXYahD+3KQHGBNmmkk9gpaCytgkQbjOvEU7Z11dANqp+705sFvH7g
ME85EeA6f1M5Dh9IaQiLwIZpqQHf3Bmj4qfOFuUEZldsBgECQQDuGxLp17Poog6c
wSJCD6J/xUH5Kq8jwVTiX4V4uMbndzJyhQOMZ/FkHgWtP6x6S16h79jLioqooWux
bcsNJ4aJAkEAy9gJpOUxdAN4E0dMajX7d8k1zs/o6idL7AaaGmyORxK8htn5TLDR
GR04UVXsbAoc2CPBnkjD1t3p/k0FgvpG4QJAJ7ts1IiiBNfGCHJR/SQOwbNw5tsw
jo7cU0oNQ6/RwR4q1OFNTkiqB0LbP6W4ak/ZYrxbONvNd4Y4Kktf7roBwQJBAIjq
Q5gJBY1p4xX31sCkH5KWiFiv1z6nRFx1Fr7W2T2tvQlKkSNMxDV9Jd2ju9fZdwRK
B/t73maMyWUwcJpH5qECQD4owQtR29skE2AvCjryw/dbhMMZDWVGEeErJd7iIkOp
H+tb55czxofwMVB+bWzFoiP9vcwEm5xwxRNAHdp8D7o=
-----END RSA PRIVATE KEY-----
