Certificate:
    Data:
        Version: 3 (0x2)
        Serial Number: 2 (0x2)
        Signature Algorithm: sha1WithRSAEncryption
        Issuer: C=AU, O=DXCertGenPKI, CN=DXCertGenCA
        Validity
            Not Before: Apr 26 19:32:57 2015 GMT
            Not After : Apr 25 19:32:57 2016 GMT
        Subject: C=AU, O=Democorp, CN=secondary-data
        Subject Public Key Info:
            Public Key Algorithm: rsaEncryption
            RSA Public Key: (1024 bit)
                Modulus (1024 bit):
                    00:de:cb:62:ff:b1:8d:b9:e9:d6:60:f2:c0:d8:cd:
                    33:fb:dd:b3:25:81:5b:75:0c:09:65:c8:de:87:3d:
                    d0:21:fe:5b:7d:07:c7:f9:65:06:f0:b4:3c:ea:9a:
                    4b:8c:0a:7f:be:2e:a8:f2:d6:91:ad:a2:11:48:90:
                    13:da:df:a1:44:b7:25:5a:e9:e5:a2:03:24:40:fa:
                    f2:2e:61:fc:54:88:37:be:b2:16:74:c1:41:88:bb:
                    3f:7e:92:37:ca:c0:10:e9:da:2a:e3:ae:20:9d:d9:
                    b7:25:a5:86:b7:7e:b1:54:4d:ce:23:55:15:8d:9f:
                    ed:c0:ef:43:89:e6:1d:3f:e5
                Exponent: 65537 (0x10001)
        X509v3 extensions:
            X509v3 Key Usage: critical
                Digital Signature, Key Encipherment, Key Agreement
            X509v3 Basic Constraints: 
                CA:FALSE
    Signature Algorithm: sha1WithRSAEncryption
        89:4c:63:a6:6b:94:ac:fa:e1:b6:f9:6e:22:4a:ea:06:74:23:
        96:d0:96:2e:3d:e3:6a:0e:32:3d:98:e9:62:e1:59:46:91:8b:
        60:1a:70:ab:49:3b:66:bf:21:94:e6:31:4e:14:3e:e1:da:28:
        c7:e1:68:62:95:49:f8:09:57:9b:d8:d3:5a:8c:a3:0c:b0:ba:
        4b:37:2b:3f:11:ac:1b:71:fa:f3:5e:4b:21:28:d6:1a:d3:89:
        45:e4:03:a9:93:87:c2:64:e6:b3:fa:7b:ad:d6:71:0a:dc:59:
        4c:38:45:7c:ce:0f:11:7d:4b:1c:b0:bb:8b:bd:ba:59:d0:cc:
        95:d4
-----BEGIN CERTIFICATE-----
MIICBjCCAW+gAwIBAgIBAjANBgkqhkiG9w0BAQUFADA6MQswCQYDVQQGEwJBVTEV
MBMGA1UEChMMRFhDZXJ0R2VuUEtJMRQwEgYDVQQDEwtEWENlcnRHZW5DQTAeFw0x
NTA0MjYxOTMyNTdaFw0xNjA0MjUxOTMyNTdaMDkxCzAJBgNVBAYTAkFVMREwDwYD
VQQKEwhEZW1vY29ycDEXMBUGA1UEAxMOc2Vjb25kYXJ5LWRhdGEwgZ8wDQYJKoZI
hvcNAQEBBQADgY0AMIGJAoGBAN7LYv+xjbnp1mDywNjNM/vdsyWBW3UMCWXI3oc9
0CH+W30Hx/llBvC0POqaS4wKf74uqPLWka2iEUiQE9rfoUS3JVrp5aIDJED68i5h
/FSIN76yFnTBQYi7P36SN8rAEOnaKuOuIJ3ZtyWlhrd+sVRNziNVFY2f7cDvQ4nm
HT/lAgMBAAGjHTAbMA4GA1UdDwEB/wQEAwIDqDAJBgNVHRMEAjAAMA0GCSqGSIb3
DQEBBQUAA4GBAIlMY6ZrlKz64bb5biJK6gZ0I5bQli4942oOMj2Y6WLhWUaRi2Aa
cKtJO2a/IZTmMU4UPuHaKMfhaGKVSfgJV5vY01qMowywuks3Kz8RrBtx+vNeSyEo
1hrTiUXkA6mTh8Jk5rP6e63WcQrcWUw4RXzODxF9Sxywu4u9ulnQzJXU
-----END CERTIFICATE-----
-----BEGIN RSA PRIVATE KEY-----
MIICXAIBAAKBgQDey2L/sY256dZg8sDYzTP73bMlgVt1DAllyN6HPdAh/lt9B8f5
ZQbwtDzqmkuMCn++Lqjy1pGtohFIkBPa36FEtyVa6eWiAyRA+vIuYfxUiDe+shZ0
wUGIuz9+kjfKwBDp2irjriCd2bclpYa3frFUTc4jVRWNn+3A70OJ5h0/5QIDAQAB
AoGAZypQ5kvGb99K6Muf5wRmXOuVB/n1aqavN1WjTYae+Q66OJRA0kgoxY8AYjYe
Y3N9IYijrQcUoA1a6Xnl58UD/FtivL7k703/2quplSM7IqCpOzz3is1giJuACXhx
7PNrpjJIYfet4A07w4HqMH+tI8b97wTIBIASw67d0ZB1SAUCQQD4stfc+oD4+MUO
FJYYh9ZHpMu5RvE7+0ITDb28LtoO4yYJcXfEbXHmDbz0Ld6+rOlLezyIyZApJABa
VTYExRnrAkEA5VXawpok4xGbH/EmkOdUkqe4A0GEPQLOkt0CA98am0HyTAQ4JGFf
VUYDOMKrd9GSZP/VpGDmZDXXesJOZQlJbwJBANLRsEEnrRrgrxKPiukChTe4T+Yg
aDBDfrBuLo+OW9TQ4xaQNEmzySCONsX6+F5Eb4NH1XnS+7yUQyRQJXmHp78CQCgl
1Is20vhRb7eyzs6VQM//vo4LXSwVHrbFLAIjf5PogpNeNbngtgDGpe+83Km4LYmy
4+LH9+1ZI6Tg+Tpk2s8CQC8Dwwoa1tYfYvh4ePoxGP65QYDtUArUgJoXEyegtPAw
6txh94G3wM1Th3tfAFS22LXkUde5AknXitcgL6Wzkwo=
-----END RSA PRIVATE KEY-----
