Certificate:
    Data:
        Version: 3 (0x2)
        Serial Number: 5 (0x5)
        Signature Algorithm: sha1WithRSAEncryption
        Issuer: C=AU, O=DXCertGenPKI, CN=DXCertGenCA
        Validity
            Not Before: Sep  3 01:53:12 2015 GMT
            Not After : Sep  2 01:53:12 2016 GMT
        Subject: DC=ca, DC=ForwardInc, CN=secondary-data
        Subject Public Key Info:
            Public Key Algorithm: rsaEncryption
            RSA Public Key: (1024 bit)
                Modulus (1024 bit):
                    00:b7:be:75:03:d8:4d:f7:c7:5d:81:ce:16:52:3f:
                    08:bb:56:af:6f:c2:bb:eb:68:06:00:cb:12:b0:78:
                    ae:07:7c:da:af:aa:5f:9a:22:f5:a8:db:d6:e1:14:
                    01:ce:f3:58:a6:de:43:4f:1a:ac:57:86:04:1a:2b:
                    3d:8b:97:92:c4:c6:b8:d0:b9:0e:27:48:d1:ce:67:
                    1b:4d:aa:fb:2b:eb:75:54:3c:fc:21:c1:ff:bc:f7:
                    d4:23:6b:2f:a3:25:17:95:7c:29:91:6c:88:d1:6b:
                    06:61:d3:b1:d7:3d:1d:f5:bc:8c:3f:fd:67:c4:07:
                    e7:ed:e2:34:a5:de:fa:21:bb
                Exponent: 65537 (0x10001)
        X509v3 extensions:
            X509v3 Key Usage: critical
                Digital Signature, Key Encipherment, Key Agreement
            X509v3 Basic Constraints: 
                CA:FALSE
    Signature Algorithm: sha1WithRSAEncryption
        7d:08:77:d5:e7:3e:5f:28:f4:28:c3:0c:3d:57:f8:d7:c3:99:
        df:6c:92:79:6b:19:40:87:56:b0:72:3b:e9:dd:e1:6f:8a:8b:
        48:72:42:8c:2f:e7:8b:f2:f9:d5:ce:53:50:e0:8b:15:5d:4a:
        08:c5:dd:49:1c:a2:ef:84:ab:d7:ac:91:8d:26:b2:3b:e7:e3:
        93:4b:98:d4:3c:68:b1:8c:44:60:e0:85:80:ec:96:5d:8d:b0:
        8f:dc:2e:54:59:c5:a5:e7:1c:bb:b1:58:d0:cd:67:6a:ef:48:
        1d:d7:16:df:34:48:18:e5:12:de:ce:53:b8:35:99:44:7b:ce:
        05:85
-----BEGIN CERTIFICATE-----
MIICFjCCAX+gAwIBAgIBBTANBgkqhkiG9w0BAQUFADA6MQswCQYDVQQGEwJBVTEV
MBMGA1UEChMMRFhDZXJ0R2VuUEtJMRQwEgYDVQQDEwtEWENlcnRHZW5DQTAeFw0x
NTA5MDMwMTUzMTJaFw0xNjA5MDIwMTUzMTJaMEkxEjAQBgoJkiaJk/IsZAEZFgJj
YTEaMBgGCgmSJomT8ixkARkWCkZvcndhcmRJbmMxFzAVBgNVBAMTDnNlY29uZGFy
eS1kYXRhMIGfMA0GCSqGSIb3DQEBAQUAA4GNADCBiQKBgQC3vnUD2E33x12BzhZS
Pwi7Vq9vwrvraAYAyxKweK4HfNqvql+aIvWo29bhFAHO81im3kNPGqxXhgQaKz2L
l5LExrjQuQ4nSNHOZxtNqvsr63VUPPwhwf+899Qjay+jJReVfCmRbIjRawZh07HX
PR31vIw//WfEB+ft4jSl3vohuwIDAQABox0wGzAOBgNVHQ8BAf8EBAMCA6gwCQYD
VR0TBAIwADANBgkqhkiG9w0BAQUFAAOBgQB9CHfV5z5fKPQowww9V/jXw5nfbJJ5
axlAh1awcjvp3eFviotIckKML+eL8vnVzlNQ4IsVXUoIxd1JHKLvhKvXrJGNJrI7
5+OTS5jUPGixjERg4IWA7JZdjbCP3C5UWcWl5xy7sVjQzWdq70gd1xbfNEgY5RLe
zlO4NZlEe84FhQ==
-----END CERTIFICATE-----
-----BEGIN RSA PRIVATE KEY-----
MIICXQIBAAKBgQC3vnUD2E33x12BzhZSPwi7Vq9vwrvraAYAyxKweK4HfNqvql+a
IvWo29bhFAHO81im3kNPGqxXhgQaKz2Ll5LExrjQuQ4nSNHOZxtNqvsr63VUPPwh
wf+899Qjay+jJReVfCmRbIjRawZh07HXPR31vIw//WfEB+ft4jSl3vohuwIDAQAB
AoGAbE5BXyDS5GiJf4fgtF4fYX25L2FTr3DDiRgqTgb0XcmEheMhMxPEReI/iLBo
WHosGUAN4MTSLUz7gglW379abM4Qlz0Jyqc72ZEQkEJbdeoHgjQSPOFnB9ACGA+o
xGUQIY3oagrmX5qqNFHvLqgMAo83DODjoGsfOqzV6CgoxOECQQDthkUWKQK9nrIn
L7it0SWiRtbqNy5O5SQA7aEXdMShuV9Mi8C7CrpRX+yPrgkBK+OZTSaFkeeSZP2n
Uv9MMXPpAkEAxglG+7q+038hM1rJfrXJH02OJTZsyrnxEd9xvBlsKMKy8fWVSy68
Sl99ansqr4CZi47BTaGokJrZkLkxa9nWAwJBAK95IlDcu0mak8KfXrAKcuMPsnYV
jgB7B74nz3qkqR9Q8zZ5iEimBD9ZvknnKH/VDK+Ub4D96TYdpcaXakO/xQECQQC+
d33F7r5KPCN6eP8C12Qwry7fq5DHCj9JqVaCSxEzws7I2CJWxQRjo6PEHeHYGh+T
kiFowOqW6dgG0Zcu27xxAkA1viV48M1ST5p2sXMc8Dnz4rQdpAwfyg6sOyGnCUMU
0r7BypthDSDXMZqg4Uxb7ANZ8jnHJXujkrIPBObBRIcn
-----END RSA PRIVATE KEY-----
