Certificate:
    Data:
        Version: 3 (0x2)
        Serial Number: 7 (0x7)
        Signature Algorithm: sha1WithRSAEncryption
        Issuer: C=AU, O=DXCertGenPKI, CN=DXCertGenCA
        Validity
            Not Before: Sep  3 01:53:13 2015 GMT
            Not After : Sep  2 01:53:13 2016 GMT
        Subject: CN=secondary-router
        Subject Public Key Info:
            Public Key Algorithm: rsaEncryption
            RSA Public Key: (1024 bit)
                Modulus (1024 bit):
                    00:d7:14:ad:8a:11:61:af:5b:a8:c7:44:ca:13:c9:
                    2d:df:db:06:58:f7:42:41:5a:bd:05:7c:ae:e1:65:
                    ff:2e:2b:62:ee:0d:d4:11:af:60:87:2d:db:36:81:
                    80:ee:33:0e:2a:65:da:cd:e1:40:7d:58:f1:26:5c:
                    1a:5a:43:13:3a:ce:58:e3:41:30:ea:3d:dd:85:d7:
                    fb:46:d2:59:87:7d:f4:ae:0e:2a:83:95:6d:9e:22:
                    73:06:68:8d:67:70:a8:97:21:a1:93:49:29:a1:0c:
                    c5:63:61:6b:7b:d1:f6:0f:fa:54:4e:49:0b:7b:9f:
                    96:2b:9f:75:f2:c5:8e:7b:65
                Exponent: 65537 (0x10001)
        X509v3 extensions:
            X509v3 Key Usage: critical
                Digital Signature, Key Encipherment, Key Agreement
            X509v3 Basic Constraints: 
                CA:FALSE
    Signature Algorithm: sha1WithRSAEncryption
        a6:fc:41:79:4d:11:e6:15:ca:7e:48:93:26:cc:62:77:e1:eb:
        6c:bc:9a:d6:e0:15:94:81:e4:10:7d:69:7d:89:c5:0b:75:af:
        18:4a:0e:c7:48:03:ce:c1:b9:35:5a:97:45:06:b9:69:2a:19:
        ee:58:e1:d9:15:9e:90:8e:9b:bf:d2:31:ae:a0:2f:83:9e:1f:
        3f:9b:f3:15:14:92:7e:2a:a9:a2:d3:1a:d8:ae:6e:02:e3:e4:
        20:c6:74:b3:c5:84:ab:7c:46:4f:c9:f2:06:79:f9:a6:c8:00:
        c3:19:35:de:2b:96:71:4e:db:af:3d:ef:4f:e5:53:b1:47:ad:
        15:c1
-----BEGIN CERTIFICATE-----
MIIB6DCCAVGgAwIBAgIBBzANBgkqhkiG9w0BAQUFADA6MQswCQYDVQQGEwJBVTEV
MBMGA1UEChMMRFhDZXJ0R2VuUEtJMRQwEgYDVQQDEwtEWENlcnRHZW5DQTAeFw0x
NTA5MDMwMTUzMTNaFw0xNjA5MDIwMTUzMTNaMBsxGTAXBgNVBAMTEHNlY29uZGFy
eS1yb3V0ZXIwgZ8wDQYJKoZIhvcNAQEBBQADgY0AMIGJAoGBANcUrYoRYa9bqMdE
yhPJLd/bBlj3QkFavQV8ruFl/y4rYu4N1BGvYIct2zaBgO4zDipl2s3hQH1Y8SZc
GlpDEzrOWONBMOo93YXX+0bSWYd99K4OKoOVbZ4icwZojWdwqJchoZNJKaEMxWNh
a3vR9g/6VE5JC3ufliufdfLFjntlAgMBAAGjHTAbMA4GA1UdDwEB/wQEAwIDqDAJ
BgNVHRMEAjAAMA0GCSqGSIb3DQEBBQUAA4GBAKb8QXlNEeYVyn5IkybMYnfh62y8
mtbgFZSB5BB9aX2JxQt1rxhKDsdIA87BuTVal0UGuWkqGe5Y4dkVnpCOm7/SMa6g
L4OeHz+b8xUUkn4qqaLTGtiubgLj5CDGdLPFhKt8Rk/J8gZ5+abIAMMZNd4rlnFO
268970/lU7FHrRXB
-----END CERTIFICATE-----
-----BEGIN RSA PRIVATE KEY-----
MIICXAIBAAKBgQDXFK2KEWGvW6jHRMoTyS3f2wZY90JBWr0FfK7hZf8uK2LuDdQR
r2CHLds2gYDuMw4qZdrN4UB9WPEmXBpaQxM6zljjQTDqPd2F1/tG0lmHffSuDiqD
lW2eInMGaI1ncKiXIaGTSSmhDMVjYWt70fYP+lROSQt7n5Yrn3XyxY57ZQIDAQAB
AoGBAJsZUjuqZSMrmf544LB79xTiwSUOyTyPzpdSXlo0T1xf9Stt1WwbaCSTMO2R
XgRn1ONGKA8nTHYX2W6sJGTK0eXXxcnBQpz1Hn0oVFQjlrwVvrJdusv4zju/YRoi
8+sequ8z0qMRF/3gMkF1M15GyIc8CLir1xQTC07x2q2yFLuBAkEA7rb53GaQMLXB
i+yCjkb2aEODrJMn+nurd6INconeUFHPp5BOk1K8eHP5NaJsCMX6endv0ioP/zY2
4r/wsTQAmQJBAOanmhimOGG54RPo0xY6//Q+hdvJ9q5IOXIhPe2NamNSyEN6NaGb
cXWocZADoaOUaiadd2lL5PPGoHz07r+DNK0CQCbI49/Dajn/zeqGCtBDB1X5YjNv
1VcFMN7HHZg2fkBeinaXI60cDDMl5J+qPBNQ11l+flSPMPouPMyqkti3skECQHBd
oBV4DKmXO05Os172GTEssFt1lWYsK0gtZ5TturFuZ79vrubu6iQujjxheIJPUDNF
rSGv5nbYAeE+FX1Y9vUCQF5lMfQ6bGcwLUYdB53y6WHcMKHv8WNKWNz8sB6CNrKC
zPICsgHgKKhA+tnsP3vJtPM1eKSc8LmgetgDwbgkg3s=
-----END RSA PRIVATE KEY-----
