Certificate:
    Data:
        Version: 3 (0x2)
        Serial Number: 4 (0x4)
        Signature Algorithm: sha1WithRSAEncryption
        Issuer: C=AU, O=DXCertGenPKI, CN=DXCertGenCA
        Validity
            Not Before: Apr 26 19:32:59 2015 GMT
            Not After : Apr 25 19:32:59 2016 GMT
        Subject: CN=secondary-router
        Subject Public Key Info:
            Public Key Algorithm: rsaEncryption
            RSA Public Key: (1024 bit)
                Modulus (1024 bit):
                    00:a5:57:3a:df:17:16:66:6a:70:80:76:ad:85:af:
                    a8:b2:ae:77:60:5c:8f:a3:e9:13:66:3a:84:99:cd:
                    da:56:83:52:4f:23:1d:39:c7:87:4d:3a:ac:35:d8:
                    dd:91:7b:c4:7e:a6:b7:12:ec:e2:24:3d:e2:4d:4d:
                    78:15:50:bb:13:5a:c9:d1:b7:d9:5f:45:db:a4:24:
                    55:f3:7d:cb:6b:57:7c:8b:fa:f3:b9:1b:3e:30:50:
                    9a:fd:68:89:42:34:96:83:93:a0:3f:9b:2e:75:e3:
                    3f:d8:12:b2:ac:b2:6f:d6:6c:8e:1a:87:63:0d:62:
                    45:f3:f9:32:90:5b:d3:16:af
                Exponent: 65537 (0x10001)
        X509v3 extensions:
            X509v3 Key Usage: critical
                Digital Signature, Key Encipherment, Key Agreement
            X509v3 Basic Constraints: 
                CA:FALSE
    Signature Algorithm: sha1WithRSAEncryption
        15:4e:2f:87:1f:17:e0:8e:28:b3:d2:d7:30:43:a0:43:69:3c:
        b8:7a:62:06:36:29:e3:2f:5a:6b:5e:41:ad:52:c1:b2:f0:29:
        21:4f:cc:d5:57:1c:63:53:54:67:b9:62:15:f5:19:89:64:49:
        88:39:81:0d:c9:b6:84:ca:63:6c:20:cf:9e:14:d8:d9:23:28:
        ad:c4:b0:50:7e:ed:77:4c:5b:47:df:d0:c6:6d:74:0a:10:e3:
        65:f5:19:1c:fb:be:9a:ec:c9:ac:21:35:8e:95:7c:43:09:9f:
        93:30:4d:10:f0:d6:89:cd:9d:8b:47:e1:1f:ae:da:5f:07:d2:
        ee:58
-----BEGIN CERTIFICATE-----
MIIB6DCCAVGgAwIBAgIBBDANBgkqhkiG9w0BAQUFADA6MQswCQYDVQQGEwJBVTEV
MBMGA1UEChMMRFhDZXJ0R2VuUEtJMRQwEgYDVQQDEwtEWENlcnRHZW5DQTAeFw0x
NTA0MjYxOTMyNTlaFw0xNjA0MjUxOTMyNTlaMBsxGTAXBgNVBAMTEHNlY29uZGFy
eS1yb3V0ZXIwgZ8wDQYJKoZIhvcNAQEBBQADgY0AMIGJAoGBAKVXOt8XFmZqcIB2
rYWvqLKud2Bcj6PpE2Y6hJnN2laDUk8jHTnHh006rDXY3ZF7xH6mtxLs4iQ94k1N
eBVQuxNaydG32V9F26QkVfN9y2tXfIv687kbPjBQmv1oiUI0loOToD+bLnXjP9gS
sqyyb9ZsjhqHYw1iRfP5MpBb0xavAgMBAAGjHTAbMA4GA1UdDwEB/wQEAwIDqDAJ
BgNVHRMEAjAAMA0GCSqGSIb3DQEBBQUAA4GBABVOL4cfF+COKLPS1zBDoENpPLh6
YgY2KeMvWmteQa1SwbLwKSFPzNVXHGNTVGe5YhX1GYlkSYg5gQ3JtoTKY2wgz54U
2NkjKK3EsFB+7XdMW0ff0MZtdAoQ42X1GRz7vprsyawhNY6VfEMJn5MwTRDw1onN
nYtH4R+u2l8H0u5Y
-----END CERTIFICATE-----
-----BEGIN RSA PRIVATE KEY-----
MIICXQIBAAKBgQClVzrfFxZmanCAdq2Fr6iyrndgXI+j6RNmOoSZzdpWg1JPIx05
x4dNOqw12N2Re8R+prcS7OIkPeJNTXgVULsTWsnRt9lfRdukJFXzfctrV3yL+vO5
Gz4wUJr9aIlCNJaDk6A/my514z/YErKssm/WbI4ah2MNYkXz+TKQW9MWrwIDAQAB
AoGAP/9Wmzldg0DZ0O+e1KscWiUrsdHCC4jQ6HXoE3xZcbkc5+LIki/IED2QoLsT
cBd/BCLVo+6qzapiaNd+jomUDxd0Dg1pL/KbIouKEsYHKtj8vIZUx0vtJSpnHepa
ea667xxSur7X9X2ha/zQ0UWu9XRvXfRdYH5mrmQyL4lGxOECQQDT1YdcvNH/fbmN
Sci0KEX1cnMnUj+9fbEYXnzdaboISGyk87R02n5Py3yIKq3/XFcumLM33M1DygIq
oqI2cYSfAkEAx9AoEbYJA13A3Q79XPqab9GrE73BVY2K0dybK807hfwvizNCTQsX
KFSVCsfLcrKqEV/mIKeOFLQRQ7FJWfyj8QJAeQKb5xA+blMl8l5Z9wCipkoRGj9U
Bi2NQzyG2/0PtreYyMonJjHCwlad9zNaXmwjqYy1pI3P/I+jmTN6sts6RQJBAKnd
OdMkr7De6PCEp7t9iAD7e7aCoHM8qwERzBCGns2ewERURU792Kf+j93kT/6oCJBQ
uHCWQOE022ByvOr1LeECQQDTBht+jbkyJccYBcMNYQAr6xCuuYsYeIFV0KunOvhM
cpz4epIaLn51GHW+d8Y5pilIsgD7RqMboiaGi9l8/izI
-----END RSA PRIVATE KEY-----
